target datalayout = "e-m:e-p270:32:32-p271:32:32-p272:64:64-i64:64-i128:128-f80:128-n8:16:32:64-S128"
target triple = "x86_64-pc-linux-gnu"

%struct.forward = type { %struct.slurm_node_alias_addrs_t, i16, i16, ptr, i32, i16, i16 }
%struct.slurm_node_alias_addrs_t = type { i64, ptr, ptr, i32, ptr }
%struct.sockaddr_storage = type { i16, [118 x i8], i64 }
%struct.slurm_msg = type { %struct.sockaddr_storage, ptr, i32, i32, i32, i8, i32, i8, i32, ptr, ptr, i32, ptr, ptr, i16, i8, i16, i16, %struct.forward, ptr, %struct.sockaddr_storage, ptr }
%struct.container_state_msg_t = type { ptr, ptr, i32, i32, ptr, ptr }

; Function Attrs: nounwind uwtable
define internal i32 @_unpack_container_state_msg(ptr noundef %0, ptr noundef %1) #0 {
  %3 = alloca i32, align 4
  %4 = alloca ptr, align 8
  %5 = alloca ptr, align 8
  %6 = alloca ptr, align 8
  %7 = alloca i32, align 4
  %8 = alloca i32, align 4
  %9 = alloca i32, align 4
  %10 = alloca i32, align 4
  store ptr %0, ptr %4, align 8
  store ptr %1, ptr %5, align 8
  call void @llvm.lifetime.start.p0(i64 8, ptr %6) #6
  %11 = call ptr @slurm_create_container_state_msg()
  store ptr %11, ptr %6, align 8
  %12 = load ptr, ptr %6, align 8
  %13 = load ptr, ptr %4, align 8
  %14 = getelementptr inbounds nuw %struct.slurm_msg, ptr %13, i32 0, i32 13
  store ptr %12, ptr %14, align 8
  %15 = load ptr, ptr %4, align 8
  %16 = getelementptr inbounds nuw %struct.slurm_msg, ptr %15, i32 0, i32 17
  %17 = load i16, ptr %16, align 2
  %18 = zext i16 %17 to i32
  %19 = icmp sge i32 %18, 10240
  br i1 %19, label %20, label %90

20:                                               ; preds = %2
  br label %21

21:                                               ; preds = %20
  call void @llvm.lifetime.start.p0(i64 4, ptr %7) #6
  %22 = load ptr, ptr %6, align 8
  %23 = getelementptr inbounds nuw %struct.container_state_msg_t, ptr %22, i32 0, i32 0
  %24 = load ptr, ptr %5, align 8
  %25 = call i32 @unpackstr_xmalloc_chooser(ptr noundef %23, ptr noundef %7, ptr noundef %24)
  %26 = icmp ne i32 %25, 0
  br i1 %26, label %27, label %28

27:                                               ; preds = %21
  store i32 4, ptr %8, align 4
  br label %29

28:                                               ; preds = %21
  store i32 0, ptr %8, align 4
  br label %29

29:                                               ; preds = %27, %28
  call void @llvm.lifetime.end.p0(i64 4, ptr %7) #6
  %30 = load i32, ptr %8, align 4
  switch i32 %30, label %95 [
    i32 0, label %31
    i32 4, label %91
  ]

31:                                               ; preds = %29
  br label %32

32:                                               ; preds = %31
  br label %33

33:                                               ; preds = %32
  br label %34

34:                                               ; preds = %33
  call void @llvm.lifetime.start.p0(i64 4, ptr %9) #6
  %35 = load ptr, ptr %6, align 8
  %36 = getelementptr inbounds nuw %struct.container_state_msg_t, ptr %35, i32 0, i32 1
  %37 = load ptr, ptr %5, align 8
  %38 = call i32 @unpackstr_xmalloc_chooser(ptr noundef %36, ptr noundef %9, ptr noundef %37)
  %39 = icmp ne i32 %38, 0
  br i1 %39, label %40, label %41

40:                                               ; preds = %34
  store i32 4, ptr %8, align 4
  br label %42

41:                                               ; preds = %34
  store i32 0, ptr %8, align 4
  br label %42

42:                                               ; preds = %40, %41
  call void @llvm.lifetime.end.p0(i64 4, ptr %9) #6
  %43 = load i32, ptr %8, align 4
  switch i32 %43, label %95 [
    i32 0, label %44
    i32 4, label %91
  ]

44:                                               ; preds = %42
  br label %45

45:                                               ; preds = %44
  br label %46

46:                                               ; preds = %45
  br label %47

47:                                               ; preds = %46
  %48 = load ptr, ptr %6, align 8
  %49 = getelementptr inbounds nuw %struct.container_state_msg_t, ptr %48, i32 0, i32 2
  %50 = load ptr, ptr %5, align 8
  %51 = call i32 @unpack32(ptr noundef %49, ptr noundef %50)
  %52 = icmp ne i32 %51, 0
  br i1 %52, label %53, label %54

53:                                               ; preds = %47
  br label %91

54:                                               ; preds = %47
  br label %55

55:                                               ; preds = %54
  br label %56

56:                                               ; preds = %55
  br label %57

57:                                               ; preds = %56
  %58 = load ptr, ptr %6, align 8
  %59 = getelementptr inbounds nuw %struct.container_state_msg_t, ptr %58, i32 0, i32 3
  %60 = load ptr, ptr %5, align 8
  %61 = call i32 @unpack32(ptr noundef %59, ptr noundef %60)
  %62 = icmp ne i32 %61, 0
  br i1 %62, label %63, label %64

63:                                               ; preds = %57
  br label %91

64:                                               ; preds = %57
  br label %65

65:                                               ; preds = %64
  br label %66

66:                                               ; preds = %65
  br label %67

67:                                               ; preds = %66
  call void @llvm.lifetime.start.p0(i64 4, ptr %10) #6
  %68 = load ptr, ptr %6, align 8
  %69 = getelementptr inbounds nuw %struct.container_state_msg_t, ptr %68, i32 0, i32 4
  %70 = load ptr, ptr %5, align 8
  %71 = call i32 @unpackstr_xmalloc_chooser(ptr noundef %69, ptr noundef %10, ptr noundef %70)
  %72 = icmp ne i32 %71, 0
  br i1 %72, label %73, label %74

73:                                               ; preds = %67
  store i32 4, ptr %8, align 4
  br label %75

74:                                               ; preds = %67
  store i32 0, ptr %8, align 4
  br label %75

75:                                               ; preds = %73, %74
  call void @llvm.lifetime.end.p0(i64 4, ptr %10) #6
  %76 = load i32, ptr %8, align 4
  switch i32 %76, label %95 [
    i32 0, label %77
    i32 4, label %91
  ]

77:                                               ; preds = %75
  br label %78

78:                                               ; preds = %77
  br label %79

79:                                               ; preds = %78
  %80 = load ptr, ptr %6, align 8
  %81 = getelementptr inbounds nuw %struct.container_state_msg_t, ptr %80, i32 0, i32 5
  %82 = load ptr, ptr %4, align 8
  %83 = getelementptr inbounds nuw %struct.slurm_msg, ptr %82, i32 0, i32 17
  %84 = load i16, ptr %83, align 2
  %85 = load ptr, ptr %5, align 8
  %86 = call i32 @unpack_key_pair_list(ptr noundef %81, i16 noundef zeroext %84, ptr noundef %85)
  %87 = icmp ne i32 %86, 0
  br i1 %87, label %88, label %89

88:                                               ; preds = %79
  br label %91

89:                                               ; preds = %79
  br label %90

90:                                               ; preds = %89, %2
  store i32 0, ptr %3, align 4
  store i32 1, ptr %8, align 4
  br label %95

91:                                               ; preds = %75, %42, %29, %88, %63, %53
  %92 = load ptr, ptr %6, align 8
  call void @slurm_destroy_container_state_msg(ptr noundef %92)
  %93 = load ptr, ptr %4, align 8
  %94 = getelementptr inbounds nuw %struct.slurm_msg, ptr %93, i32 0, i32 13
  store ptr null, ptr %94, align 8
  store i32 -1, ptr %3, align 4
  store i32 1, ptr %8, align 4
  br label %95

95:                                               ; preds = %91, %90, %75, %42, %29
  call void @llvm.lifetime.end.p0(i64 8, ptr %6) #6
  %96 = load i32, ptr %3, align 4
  ret i32 %96
}