; Function Attrs: nounwind uwtable
define internal fastcc range(i32 -1, 1) i32 @_unpack_container_state_msg(ptr noundef captures(none) initializes((200, 208)) %0, ptr noundef %1) unnamed_addr #0 {
  %3 = alloca i32, align 4
  %4 = alloca i32, align 4
  %5 = alloca i32, align 4
  %6 = tail call ptr @slurm_create_container_state_msg() #7
  %7 = getelementptr inbounds nuw i8, ptr %0, i64 200
  store ptr %6, ptr %7, align 8
  %8 = getelementptr inbounds nuw i8, ptr %0, i64 214
  %9 = load i16, ptr %8, align 2
  %10 = icmp ugt i16 %9, 10239
  br i1 %10, label %11, label %30

11:                                               ; preds = %2
  call void @llvm.lifetime.start.p0(i64 4, ptr nonnull %3) #7
  %12 = call i32 @unpackstr_xmalloc_chooser(ptr noundef %6, ptr noundef nonnull %3, ptr noundef %1) #7
  %.not = icmp eq i32 %12, 0
  call void @llvm.lifetime.end.p0(i64 4, ptr nonnull %3) #7
  br i1 %.not, label %13, label %29

13:                                               ; preds = %11
  call void @llvm.lifetime.start.p0(i64 4, ptr nonnull %4) #7
  %14 = getelementptr inbounds nuw i8, ptr %6, i64 8
  %15 = call i32 @unpackstr_xmalloc_chooser(ptr noundef nonnull %14, ptr noundef nonnull %4, ptr noundef %1) #7
  %.not22 = icmp eq i32 %15, 0
  call void @llvm.lifetime.end.p0(i64 4, ptr nonnull %4) #7
  br i1 %.not22, label %16, label %29

16:                                               ; preds = %13
  %17 = getelementptr inbounds nuw i8, ptr %6, i64 16
  %18 = call i32 @unpack32(ptr noundef nonnull %17, ptr noundef %1) #7
  %.not23 = icmp eq i32 %18, 0
  br i1 %.not23, label %19, label %29

19:                                               ; preds = %16
  %20 = getelementptr inbounds nuw i8, ptr %6, i64 20
  %21 = call i32 @unpack32(ptr noundef nonnull %20, ptr noundef %1) #7
  %.not24 = icmp eq i32 %21, 0
  br i1 %.not24, label %22, label %29

22:                                               ; preds = %19
  call void @llvm.lifetime.start.p0(i64 4, ptr nonnull %5) #7
  %23 = getelementptr inbounds nuw i8, ptr %6, i64 24
  %24 = call i32 @unpackstr_xmalloc_chooser(ptr noundef nonnull %23, ptr noundef nonnull %5, ptr noundef %1) #7
  %.not25 = icmp eq i32 %24, 0
  call void @llvm.lifetime.end.p0(i64 4, ptr nonnull %5) #7
  br i1 %.not25, label %25, label %29

25:                                               ; preds = %22
  %26 = getelementptr inbounds nuw i8, ptr %6, i64 32
  %27 = load i16, ptr %8, align 2
  %28 = call i32 @unpack_key_pair_list(ptr noundef nonnull %26, i16 noundef zeroext %27, ptr noundef %1) #7
  %.not26 = icmp eq i32 %28, 0
  br i1 %.not26, label %30, label %29

29:                                               ; preds = %22, %13, %11, %25, %19, %16
  call void @slurm_destroy_container_state_msg(ptr noundef %6) #7
  store ptr null, ptr %7, align 8
  br label %30

30:                                               ; preds = %2, %25, %29
  %.021 = phi i32 [ -1, %29 ], [ 0, %25 ], [ 0, %2 ]
  ret i32 %.021
}